target datalayout = "e-m:e-p270:32:32-p271:32:32-p272:64:64-i64:64-i128:128-f80:128-n8:16:32:64-S128"
target triple = "x86_64-pc-linux-gnu"

%struct.AVComplexFloat = type { float, float }
%struct.AVTXContext = type { i32, i32, ptr, ptr, ptr, ptr, [4 x ptr], i32, [4 x ptr], ptr, i32, i64, i32, float, double, ptr }

; Function Attrs: nounwind uwtable
define internal void @ff_tx_rdft_r2i_float_c(ptr noundef %0, ptr noundef %1, ptr noundef %2, i64 noundef %3) #4 {
  %5 = alloca ptr, align 8
  %6 = alloca ptr, align 8
  %7 = alloca ptr, align 8
  %8 = alloca i64, align 8
  %9 = alloca i32, align 4
  %10 = alloca i32, align 4
  %11 = alloca i32, align 4
  %12 = alloca i32, align 4
  %13 = alloca ptr, align 8
  %14 = alloca ptr, align 8
  %15 = alloca ptr, align 8
  %16 = alloca ptr, align 8
  %17 = alloca ptr, align 8
  %18 = alloca float, align 4
  %19 = alloca i32, align 4
  %20 = alloca [4 x float], align 16
  %21 = alloca %struct.AVComplexFloat, align 4
  %22 = alloca %struct.AVComplexFloat, align 4
  %23 = alloca i32, align 4
  store ptr %0, ptr %5, align 8, !tbaa !17
  store ptr %1, ptr %6, align 8, !tbaa !8
  store ptr %2, ptr %7, align 8, !tbaa !8
  store i64 %3, ptr %8, align 8, !tbaa !30
  call void @llvm.lifetime.start.p0(i64 4, ptr %9) #10
  %24 = load ptr, ptr %5, align 8, !tbaa !17
  %25 = getelementptr inbounds nuw %struct.AVTXContext, ptr %24, i32 0, i32 0
  %26 = load i32, ptr %25, align 8, !tbaa !21
  store i32 %26, ptr %9, align 4, !tbaa !4
  call void @llvm.lifetime.start.p0(i64 4, ptr %10) #10
  %27 = load i32, ptr %9, align 4, !tbaa !4
  %28 = ashr i32 %27, 1
  store i32 %28, ptr %10, align 4, !tbaa !4
  call void @llvm.lifetime.start.p0(i64 4, ptr %11) #10
  %29 = load i32, ptr %9, align 4, !tbaa !4
  %30 = ashr i32 %29, 2
  store i32 %30, ptr %11, align 4, !tbaa !4
  call void @llvm.lifetime.start.p0(i64 4, ptr %12) #10
  %31 = load i32, ptr %9, align 4, !tbaa !4
  %32 = add nsw i32 %31, 4
  %33 = sub nsw i32 %32, 1
  %34 = and i32 %33, -4
  %35 = sdiv i32 %34, 4
  store i32 %35, ptr %12, align 4, !tbaa !4
  call void @llvm.lifetime.start.p0(i64 8, ptr %13) #10
  %36 = load ptr, ptr %5, align 8, !tbaa !17
  %37 = getelementptr inbounds nuw %struct.AVTXContext, ptr %36, i32 0, i32 3
  %38 = load ptr, ptr %37, align 8, !tbaa !31
  store ptr %38, ptr %13, align 8, !tbaa !39
  call void @llvm.lifetime.start.p0(i64 8, ptr %14) #10
  %39 = load ptr, ptr %13, align 8, !tbaa !39
  %40 = getelementptr inbounds float, ptr %39, i64 8
  store ptr %40, ptr %14, align 8, !tbaa !39
  call void @llvm.lifetime.start.p0(i64 8, ptr %15) #10
  %41 = load ptr, ptr %14, align 8, !tbaa !39
  %42 = load i32, ptr %12, align 4, !tbaa !4
  %43 = sext i32 %42 to i64
  %44 = getelementptr inbounds float, ptr %41, i64 %43
  store ptr %44, ptr %15, align 8, !tbaa !39
  call void @llvm.lifetime.start.p0(i64 8, ptr %16) #10
  %45 = load ptr, ptr %6, align 8, !tbaa !8
  store ptr %45, ptr %16, align 8, !tbaa !60
  call void @llvm.lifetime.start.p0(i64 8, ptr %17) #10
  %46 = load ptr, ptr %6, align 8, !tbaa !8
  store ptr %46, ptr %17, align 8, !tbaa !39
  call void @llvm.lifetime.start.p0(i64 4, ptr %18) #10
  %47 = load ptr, ptr %5, align 8, !tbaa !17
  %48 = getelementptr inbounds nuw %struct.AVTXContext, ptr %47, i32 0, i32 6
  %49 = getelementptr inbounds [4 x ptr], ptr %48, i64 0, i64 0
  %50 = load ptr, ptr %49, align 8, !tbaa !8
  %51 = load ptr, ptr %5, align 8, !tbaa !17
  %52 = getelementptr inbounds nuw %struct.AVTXContext, ptr %51, i32 0, i32 5
  %53 = load ptr, ptr %52, align 8, !tbaa !68
  %54 = getelementptr inbounds %struct.AVTXContext, ptr %53, i64 0
  %55 = load ptr, ptr %6, align 8, !tbaa !8
  %56 = load ptr, ptr %7, align 8, !tbaa !8
  call void %50(ptr noundef %54, ptr noundef %55, ptr noundef %56, i64 noundef 8)
  %57 = load ptr, ptr %16, align 8, !tbaa !60
  %58 = getelementptr inbounds %struct.AVComplexFloat, ptr %57, i64 0
  %59 = getelementptr inbounds nuw %struct.AVComplexFloat, ptr %58, i32 0, i32 0
  %60 = load float, ptr %59, align 4, !tbaa !32
  store float %60, ptr %18, align 4, !tbaa !36
  %61 = load float, ptr %18, align 4, !tbaa !36
  %62 = load ptr, ptr %16, align 8, !tbaa !60
  %63 = getelementptr inbounds %struct.AVComplexFloat, ptr %62, i64 0
  %64 = getelementptr inbounds nuw %struct.AVComplexFloat, ptr %63, i32 0, i32 1
  %65 = load float, ptr %64, align 4, !tbaa !34
  %66 = fadd nsz float %61, %65
  %67 = load ptr, ptr %16, align 8, !tbaa !60
  %68 = getelementptr inbounds %struct.AVComplexFloat, ptr %67, i64 0
  %69 = getelementptr inbounds nuw %struct.AVComplexFloat, ptr %68, i32 0, i32 0
  store float %66, ptr %69, align 4, !tbaa !32
  %70 = load float, ptr %18, align 4, !tbaa !36
  %71 = load ptr, ptr %16, align 8, !tbaa !60
  %72 = getelementptr inbounds %struct.AVComplexFloat, ptr %71, i64 0
  %73 = getelementptr inbounds nuw %struct.AVComplexFloat, ptr %72, i32 0, i32 1
  %74 = load float, ptr %73, align 4, !tbaa !34
  %75 = fsub nsz float %70, %74
  store float %75, ptr %18, align 4, !tbaa !36
  %76 = load ptr, ptr %13, align 8, !tbaa !39
  %77 = getelementptr inbounds float, ptr %76, i64 0
  %78 = load float, ptr %77, align 4, !tbaa !36
  %79 = load ptr, ptr %16, align 8, !tbaa !60
  %80 = getelementptr inbounds %struct.AVComplexFloat, ptr %79, i64 0
  %81 = getelementptr inbounds nuw %struct.AVComplexFloat, ptr %80, i32 0, i32 0
  %82 = load float, ptr %81, align 4, !tbaa !32
  %83 = fmul nsz float %78, %82
  %84 = load ptr, ptr %16, align 8, !tbaa !60
  %85 = getelementptr inbounds %struct.AVComplexFloat, ptr %84, i64 0
  %86 = getelementptr inbounds nuw %struct.AVComplexFloat, ptr %85, i32 0, i32 0
  store float %83, ptr %86, align 4, !tbaa !32
  %87 = load ptr, ptr %13, align 8, !tbaa !39
  %88 = getelementptr inbounds float, ptr %87, i64 1
  %89 = load float, ptr %88, align 4, !tbaa !36
  %90 = load float, ptr %18, align 4, !tbaa !36
  %91 = fmul nsz float %89, %90
  store float %91, ptr %18, align 4, !tbaa !36
  %92 = load ptr, ptr %13, align 8, !tbaa !39
  %93 = getelementptr inbounds float, ptr %92, i64 2
  %94 = load float, ptr %93, align 4, !tbaa !36
  %95 = load ptr, ptr %16, align 8, !tbaa !60
  %96 = load i32, ptr %11, align 4, !tbaa !4
  %97 = sext i32 %96 to i64
  %98 = getelementptr inbounds %struct.AVComplexFloat, ptr %95, i64 %97
  %99 = getelementptr inbounds nuw %struct.AVComplexFloat, ptr %98, i32 0, i32 0
  %100 = load float, ptr %99, align 4, !tbaa !32
  %101 = fmul nsz float %94, %100
  %102 = load ptr, ptr %16, align 8, !tbaa !60
  %103 = load i32, ptr %11, align 4, !tbaa !4
  %104 = sext i32 %103 to i64
  %105 = getelementptr inbounds %struct.AVComplexFloat, ptr %102, i64 %104
  %106 = getelementptr inbounds nuw %struct.AVComplexFloat, ptr %105, i32 0, i32 0
  store float %101, ptr %106, align 4, !tbaa !32
  %107 = load ptr, ptr %13, align 8, !tbaa !39
  %108 = getelementptr inbounds float, ptr %107, i64 3
  %109 = load float, ptr %108, align 4, !tbaa !36
  %110 = load ptr, ptr %16, align 8, !tbaa !60
  %111 = load i32, ptr %11, align 4, !tbaa !4
  %112 = sext i32 %111 to i64
  %113 = getelementptr inbounds %struct.AVComplexFloat, ptr %110, i64 %112
  %114 = getelementptr inbounds nuw %struct.AVComplexFloat, ptr %113, i32 0, i32 1
  %115 = load float, ptr %114, align 4, !tbaa !34
  %116 = fmul nsz float %109, %115
  %117 = load ptr, ptr %16, align 8, !tbaa !60
  %118 = load i32, ptr %11, align 4, !tbaa !4
  %119 = sext i32 %118 to i64
  %120 = getelementptr inbounds %struct.AVComplexFloat, ptr %117, i64 %119
  %121 = getelementptr inbounds nuw %struct.AVComplexFloat, ptr %120, i32 0, i32 1
  store float %116, ptr %121, align 4, !tbaa !34
  call void @llvm.lifetime.start.p0(i64 4, ptr %19) #10
  store i32 1, ptr %19, align 4, !tbaa !4
  br label %122

122:                                              ; preds = %207, %4
  %123 = load i32, ptr %19, align 4, !tbaa !4
  %124 = load i32, ptr %11, align 4, !tbaa !4
  %125 = icmp sle i32 %123, %124
  br i1 %125, label %127, label %126

126:                                              ; preds = %122
  call void @llvm.lifetime.end.p0(i64 4, ptr %19) #10
  br label %210

127:                                              ; preds = %122
  call void @llvm.lifetime.start.p0(i64 16, ptr %20) #10
  call void @llvm.lifetime.start.p0(i64 8, ptr %21) #10
  %128 = load ptr, ptr %16, align 8, !tbaa !60
  %129 = load i32, ptr %19, align 4, !tbaa !4
  %130 = sext i32 %129 to i64
  %131 = getelementptr inbounds %struct.AVComplexFloat, ptr %128, i64 %130
  call void @llvm.memcpy.p0.p0.i64(ptr align 4 %21, ptr align 4 %131, i64 8, i1 false), !tbaa.struct !35
  call void @llvm.lifetime.start.p0(i64 8, ptr %22) #10
  %132 = load ptr, ptr %16, align 8, !tbaa !60
  %133 = load i32, ptr %10, align 4, !tbaa !4
  %134 = load i32, ptr %19, align 4, !tbaa !4
  %135 = sub nsw i32 %133, %134
  %136 = sext i32 %135 to i64
  %137 = getelementptr inbounds %struct.AVComplexFloat, ptr %132, i64 %136
  call void @llvm.memcpy.p0.p0.i64(ptr align 4 %22, ptr align 4 %137, i64 8, i1 false), !tbaa.struct !35
  %138 = load ptr, ptr %13, align 8, !tbaa !39
  %139 = getelementptr inbounds float, ptr %138, i64 5
  %140 = load float, ptr %139, align 4, !tbaa !36
  %141 = getelementptr inbounds nuw %struct.AVComplexFloat, ptr %21, i32 0, i32 1
  %142 = load float, ptr %141, align 4, !tbaa !34
  %143 = getelementptr inbounds nuw %struct.AVComplexFloat, ptr %22, i32 0, i32 1
  %144 = load float, ptr %143, align 4, !tbaa !34
  %145 = fsub nsz float %142, %144
  %146 = fmul nsz float %140, %145
  %147 = getelementptr inbounds [4 x float], ptr %20, i64 0, i64 0
  store float %146, ptr %147, align 16, !tbaa !36
  %148 = load ptr, ptr %13, align 8, !tbaa !39
  %149 = getelementptr inbounds float, ptr %148, i64 6
  %150 = load float, ptr %149, align 4, !tbaa !36
  %151 = getelementptr inbounds nuw %struct.AVComplexFloat, ptr %21, i32 0, i32 1
  %152 = load float, ptr %151, align 4, !tbaa !34
  %153 = getelementptr inbounds nuw %struct.AVComplexFloat, ptr %22, i32 0, i32 1
  %154 = load float, ptr %153, align 4, !tbaa !34
  %155 = fadd nsz float %152, %154
  %156 = fmul nsz float %150, %155
  %157 = getelementptr inbounds [4 x float], ptr %20, i64 0, i64 1
  store float %156, ptr %157, align 4, !tbaa !36
  %158 = load ptr, ptr %13, align 8, !tbaa !39
  %159 = getelementptr inbounds float, ptr %158, i64 7
  %160 = load float, ptr %159, align 4, !tbaa !36
  %161 = getelementptr inbounds nuw %struct.AVComplexFloat, ptr %21, i32 0, i32 0
  %162 = load float, ptr %161, align 4, !tbaa !32
  %163 = getelementptr inbounds nuw %struct.AVComplexFloat, ptr %22, i32 0, i32 0
  %164 = load float, ptr %163, align 4, !tbaa !32
  %165 = fsub nsz float %162, %164
  %166 = fmul nsz float %160, %165
  %167 = getelementptr inbounds [4 x float], ptr %20, i64 0, i64 2
  store float %166, ptr %167, align 8, !tbaa !36
  %168 = getelementptr inbounds [4 x float], ptr %20, i64 0, i64 1
  %169 = load float, ptr %168, align 4, !tbaa !36
  %170 = load ptr, ptr %15, align 8, !tbaa !39
  %171 = load i32, ptr %19, align 4, !tbaa !4
  %172 = sext i32 %171 to i64
  %173 = getelementptr inbounds float, ptr %170, i64 %172
  %174 = load float, ptr %173, align 4, !tbaa !36
  %175 = getelementptr inbounds [4 x float], ptr %20, i64 0, i64 2
  %176 = load float, ptr %175, align 8, !tbaa !36
  %177 = load ptr, ptr %14, align 8, !tbaa !39
  %178 = load i32, ptr %19, align 4, !tbaa !4
  %179 = sext i32 %178 to i64
  %180 = getelementptr inbounds float, ptr %177, i64 %179
  %181 = load float, ptr %180, align 4, !tbaa !36
  %182 = fmul nsz float %176, %181
  %183 = call nsz float @llvm.fmuladd.f32(float %169, float %174, float %182)
  %184 = getelementptr inbounds [4 x float], ptr %20, i64 0, i64 3
  store float %183, ptr %184, align 4, !tbaa !36
  %185 = getelementptr inbounds [4 x float], ptr %20, i64 0, i64 3
  %186 = load float, ptr %185, align 4, !tbaa !36
  %187 = getelementptr inbounds [4 x float], ptr %20, i64 0, i64 0
  %188 = load float, ptr %187, align 16, !tbaa !36
  %189 = fsub nsz float %186, %188
  %190 = load ptr, ptr %17, align 8, !tbaa !39
  %191 = load i32, ptr %19, align 4, !tbaa !4
  %192 = sub nsw i32 %191, 1
  %193 = sext i32 %192 to i64
  %194 = getelementptr inbounds float, ptr %190, i64 %193
  store float %189, ptr %194, align 4, !tbaa !36
  %195 = getelementptr inbounds [4 x float], ptr %20, i64 0, i64 0
  %196 = load float, ptr %195, align 16, !tbaa !36
  %197 = getelementptr inbounds [4 x float], ptr %20, i64 0, i64 3
  %198 = load float, ptr %197, align 4, !tbaa !36
  %199 = fadd nsz float %196, %198
  %200 = load ptr, ptr %17, align 8, !tbaa !39
  %201 = load i32, ptr %9, align 4, !tbaa !4
  %202 = load i32, ptr %19, align 4, !tbaa !4
  %203 = sub nsw i32 %201, %202
  %204 = sub nsw i32 %203, 1
  %205 = sext i32 %204 to i64
  %206 = getelementptr inbounds float, ptr %200, i64 %205
  store float %199, ptr %206, align 4, !tbaa !36
  call void @llvm.lifetime.end.p0(i64 8, ptr %22) #10
  call void @llvm.lifetime.end.p0(i64 8, ptr %21) #10
  call void @llvm.lifetime.end.p0(i64 16, ptr %20) #10
  br label %207

207:                                              ; preds = %127
  %208 = load i32, ptr %19, align 4, !tbaa !4
  %209 = add nsw i32 %208, 1
  store i32 %209, ptr %19, align 4, !tbaa !4
  br label %122, !llvm.loop !155

210:                                              ; preds = %126
  call void @llvm.lifetime.start.p0(i64 4, ptr %23) #10
  store i32 1, ptr %23, align 4, !tbaa !4
  br label %211

211:                                              ; preds = %231, %210
  %212 = load i32, ptr %23, align 4, !tbaa !4
  %213 = load i32, ptr %11, align 4, !tbaa !4
  %214 = add nsw i32 %213, 1
  %215 = icmp slt i32 %212, %214
  br i1 %215, label %217, label %216

216:                                              ; preds = %211
  call void @llvm.lifetime.end.p0(i64 4, ptr %23) #10
  br label %234

217:                                              ; preds = %211
  %218 = load ptr, ptr %17, align 8, !tbaa !39
  %219 = load i32, ptr %9, align 4, !tbaa !4
  %220 = load i32, ptr %23, align 4, !tbaa !4
  %221 = sub nsw i32 %219, %220
  %222 = sext i32 %221 to i64
  %223 = getelementptr inbounds float, ptr %218, i64 %222
  %224 = load float, ptr %223, align 4, !tbaa !36
  %225 = load ptr, ptr %17, align 8, !tbaa !39
  %226 = load i32, ptr %10, align 4, !tbaa !4
  %227 = load i32, ptr %23, align 4, !tbaa !4
  %228 = sub nsw i32 %226, %227
  %229 = sext i32 %228 to i64
  %230 = getelementptr inbounds float, ptr %225, i64 %229
  store float %224, ptr %230, align 4, !tbaa !36
  br label %231

231:                                              ; preds = %217
  %232 = load i32, ptr %23, align 4, !tbaa !4
  %233 = add nsw i32 %232, 1
  store i32 %233, ptr %23, align 4, !tbaa !4
  br label %211, !llvm.loop !156

234:                                              ; preds = %216
  call void @llvm.lifetime.end.p0(i64 4, ptr %18) #10
  call void @llvm.lifetime.end.p0(i64 8, ptr %17) #10
  call void @llvm.lifetime.end.p0(i64 8, ptr %16) #10
  call void @llvm.lifetime.end.p0(i64 8, ptr %15) #10
  call void @llvm.lifetime.end.p0(i64 8, ptr %14) #10
  call void @llvm.lifetime.end.p0(i64 8, ptr %13) #10
  call void @llvm.lifetime.end.p0(i64 4, ptr %12) #10
  call void @llvm.lifetime.end.p0(i64 4, ptr %11) #10
  call void @llvm.lifetime.end.p0(i64 4, ptr %10) #10
  call void @llvm.lifetime.end.p0(i64 4, ptr %9) #10
  ret void
}