; Function Attrs: nounwind uwtable
define internal void @ff_tx_rdft_r2i_float_c(ptr noundef readonly captures(none) %0, ptr noundef %1, ptr noundef %2, i64 %3) #3 {
  %5 = load i32, ptr %0, align 8, !tbaa !16
  %6 = ashr i32 %5, 1
  %7 = ashr i32 %5, 2
  %8 = add nsw i32 %5, 3
  %9 = ashr i32 %8, 2
  %10 = getelementptr inbounds nuw i8, ptr %0, i64 16
  %11 = load ptr, ptr %10, align 8, !tbaa !26
  %12 = getelementptr inbounds nuw i8, ptr %11, i64 32
  %13 = sext i32 %9 to i64
  %14 = getelementptr inbounds float, ptr %12, i64 %13
  %15 = getelementptr inbounds nuw i8, ptr %0, i64 40
  %16 = load ptr, ptr %15, align 8, !tbaa !4
  %17 = getelementptr inbounds nuw i8, ptr %0, i64 32
  %18 = load ptr, ptr %17, align 8, !tbaa !56
  tail call void %16(ptr noundef %18, ptr noundef %1, ptr noundef %2, i64 noundef 8) #16
  %19 = load float, ptr %1, align 4, !tbaa !49
  %20 = getelementptr inbounds nuw i8, ptr %1, i64 4
  %21 = load float, ptr %20, align 4, !tbaa !51
  %22 = fadd nsz float %19, %21
  store float %22, ptr %1, align 4, !tbaa !49
  %23 = load float, ptr %11, align 4, !tbaa !27
  %24 = fmul nsz float %22, %23
  store float %24, ptr %1, align 4, !tbaa !49
  %25 = getelementptr inbounds nuw i8, ptr %11, i64 8
  %26 = load float, ptr %25, align 4, !tbaa !27
  %27 = sext i32 %7 to i64
  %28 = getelementptr inbounds %struct.AVComplexFloat, ptr %1, i64 %27
  %29 = load float, ptr %28, align 4, !tbaa !49
  %30 = fmul nsz float %26, %29
  store float %30, ptr %28, align 4, !tbaa !49
  %31 = getelementptr inbounds nuw i8, ptr %11, i64 12
  %32 = load float, ptr %31, align 4, !tbaa !27
  %33 = getelementptr inbounds nuw i8, ptr %28, i64 4
  %34 = load float, ptr %33, align 4, !tbaa !51
  %35 = fmul nsz float %32, %34
  store float %35, ptr %33, align 4, !tbaa !51
  %invariant.gep = getelementptr i8, ptr %1, i64 -4
  %.not73 = icmp slt i32 %7, 1
  br i1 %.not73, label %._crit_edge, label %.lr.ph

.lr.ph:                                           ; preds = %4
  %36 = getelementptr inbounds nuw i8, ptr %11, i64 20
  %37 = getelementptr inbounds nuw i8, ptr %11, i64 24
  %38 = getelementptr inbounds nuw i8, ptr %11, i64 28
  %39 = sext i32 %6 to i64
  %40 = add nuw nsw i32 %7, 1
  %wide.trip.count = zext nneg i32 %40 to i64
  br label %44

.lr.ph77.preheader:                               ; preds = %44
  %41 = zext nneg i32 %5 to i64
  %42 = sext i32 %6 to i64
  %43 = add nuw nsw i32 %7, 1
  %wide.trip.count83 = zext nneg i32 %43 to i64
  br label %.lr.ph77

44:                                               ; preds = %.lr.ph, %44
  %indvars.iv = phi i64 [ 1, %.lr.ph ], [ %indvars.iv.next, %44 ]
  %45 = getelementptr inbounds nuw %struct.AVComplexFloat, ptr %1, i64 %indvars.iv
  %.sroa.05.0.copyload = load float, ptr %45, align 4, !tbaa !27
  %.sroa.46.0..sroa_idx = getelementptr inbounds nuw i8, ptr %45, i64 4
  %.sroa.46.0.copyload = load float, ptr %.sroa.46.0..sroa_idx, align 4, !tbaa !27
  %46 = sub nsw i64 %39, %indvars.iv
  %47 = getelementptr inbounds %struct.AVComplexFloat, ptr %1, i64 %46
  %.sroa.0.0.copyload = load float, ptr %47, align 4, !tbaa !27
  %.sroa.4.0..sroa_idx = getelementptr inbounds nuw i8, ptr %47, i64 4
  %.sroa.4.0.copyload = load float, ptr %.sroa.4.0..sroa_idx, align 4, !tbaa !27
  %48 = load float, ptr %36, align 4, !tbaa !27
  %49 = fsub nsz float %.sroa.46.0.copyload, %.sroa.4.0.copyload
  %50 = fmul nsz float %48, %49
  %51 = load float, ptr %37, align 4, !tbaa !27
  %52 = fadd nsz float %.sroa.46.0.copyload, %.sroa.4.0.copyload
  %53 = fmul nsz float %52, %51
  %54 = load float, ptr %38, align 4, !tbaa !27
  %55 = fsub nsz float %.sroa.05.0.copyload, %.sroa.0.0.copyload
  %56 = fmul nsz float %55, %54
  %57 = getelementptr inbounds nuw float, ptr %14, i64 %indvars.iv
  %58 = load float, ptr %57, align 4, !tbaa !27
  %59 = getelementptr inbounds nuw float, ptr %12, i64 %indvars.iv
  %60 = load float, ptr %59, align 4, !tbaa !27
  %61 = fmul nsz float %56, %60
  %62 = tail call nsz float @llvm.fmuladd.f32(float %53, float %58, float %61)
  %63 = fsub nsz float %62, %50
  %gep = getelementptr float, ptr %invariant.gep, i64 %indvars.iv
  store float %63, ptr %gep, align 4, !tbaa !27
  %64 = fadd nsz float %50, %62
  %65 = trunc i64 %indvars.iv to i32
  %66 = xor i32 %65, -1
  %67 = add i32 %5, %66
  %68 = sext i32 %67 to i64
  %69 = getelementptr inbounds float, ptr %1, i64 %68
  store float %64, ptr %69, align 4, !tbaa !27
  %indvars.iv.next = add nuw nsw i64 %indvars.iv, 1
  %exitcond.not = icmp eq i64 %indvars.iv.next, %wide.trip.count
  br i1 %exitcond.not, label %.lr.ph77.preheader, label %44, !llvm.loop !144

._crit_edge:                                      ; preds = %.lr.ph77, %4
  ret void

.lr.ph77:                                         ; preds = %.lr.ph77.preheader, %.lr.ph77
  %indvars.iv80 = phi i64 [ 1, %.lr.ph77.preheader ], [ %indvars.iv.next81, %.lr.ph77 ]
  %70 = sub nsw i64 %41, %indvars.iv80
  %71 = getelementptr inbounds float, ptr %1, i64 %70
  %72 = load float, ptr %71, align 4, !tbaa !27
  %73 = sub nsw i64 %42, %indvars.iv80
  %74 = getelementptr inbounds float, ptr %1, i64 %73
  store float %72, ptr %74, align 4, !tbaa !27
  %indvars.iv.next81 = add nuw nsw i64 %indvars.iv80, 1
  %exitcond84.not = icmp eq i64 %indvars.iv.next81, %wide.trip.count83
  br i1 %exitcond84.not, label %._crit_edge, label %.lr.ph77, !llvm.loop !145
}